; ModuleID = 'source-C-CXX/42/592.cpp'
source_filename = "source-C-CXX/42/592.cpp"
target datalayout = "e-m:e-p270:32:32-p271:32:32-p272:64:64-i64:64-f80:128-n8:16:32:64-S128"
target triple = "x86_64-pc-linux-gnu"

%"class.std::ios_base::Init" = type { i8 }
%"class.std::basic_istream" = type { i32 (...)**, i64, %"class.std::basic_ios" }
%"class.std::basic_ios" = type { %"class.std::ios_base", %"class.std::basic_ostream"*, i8, i8, %"class.std::basic_streambuf"*, %"class.std::ctype"*, %"class.std::num_put"*, %"class.std::num_get"* }
%"class.std::ios_base" = type { i32 (...)**, i64, i64, i32, i32, i32, %"struct.std::ios_base::_Callback_list"*, %"struct.std::ios_base::_Words", [8 x %"struct.std::ios_base::_Words"], i32, %"struct.std::ios_base::_Words"*, %"class.std::locale" }
%"struct.std::ios_base::_Callback_list" = type { %"struct.std::ios_base::_Callback_list"*, void (i32, %"class.std::ios_base"*, i32)*, i32, i32 }
%"struct.std::ios_base::_Words" = type { i8*, i64 }
%"class.std::locale" = type { %"class.std::locale::_Impl"* }
%"class.std::locale::_Impl" = type { i32, %"class.std::locale::facet"**, i64, %"class.std::locale::facet"**, i8** }
%"class.std::locale::facet" = type <{ i32 (...)**, i32, [4 x i8] }>
%"class.std::basic_ostream" = type { i32 (...)**, %"class.std::basic_ios" }
%"class.std::basic_streambuf" = type { i32 (...)**, i8*, i8*, i8*, i8*, i8*, i8*, %"class.std::locale" }
%"class.std::ctype" = type <{ %"class.std::locale::facet.base", [4 x i8], %struct.__locale_struct*, i8, [7 x i8], i32*, i32*, i16*, i8, [256 x i8], [256 x i8], i8, [6 x i8] }>
%"class.std::locale::facet.base" = type <{ i32 (...)**, i32 }>
%struct.__locale_struct = type { [13 x %struct.__locale_data*], i16*, i32*, i32*, [13 x i8*] }
%struct.__locale_data = type opaque
%"class.std::num_put" = type { %"class.std::locale::facet.base", [4 x i8] }
%"class.std::num_get" = type { %"class.std::locale::facet.base", [4 x i8] }

@_ZStL8__ioinit = internal global %"class.std::ios_base::Init" zeroinitializer, align 1
@__dso_handle = external hidden global i8
@sushu = dso_local local_unnamed_addr global [168 x i32] [i32 2, i32 3, i32 5, i32 7, i32 11, i32 13, i32 17, i32 19, i32 23, i32 29, i32 31, i32 37, i32 41, i32 43, i32 47, i32 53, i32 59, i32 61, i32 67, i32 71, i32 73, i32 79, i32 83, i32 89, i32 97, i32 101, i32 103, i32 107, i32 109, i32 113, i32 127, i32 131, i32 137, i32 139, i32 149, i32 151, i32 157, i32 163, i32 167, i32 173, i32 179, i32 181, i32 191, i32 193, i32 197, i32 199, i32 211, i32 223, i32 227, i32 229, i32 233, i32 239, i32 241, i32 251, i32 257, i32 263, i32 269, i32 271, i32 277, i32 281, i32 283, i32 293, i32 307, i32 311, i32 313, i32 317, i32 331, i32 337, i32 347, i32 349, i32 353, i32 359, i32 367, i32 373, i32 379, i32 383, i32 389, i32 397, i32 401, i32 409, i32 419, i32 421, i32 431, i32 433, i32 439, i32 443, i32 449, i32 457, i32 461, i32 463, i32 467, i32 479, i32 487, i32 491, i32 499, i32 503, i32 509, i32 521, i32 523, i32 541, i32 547, i32 557, i32 563, i32 569, i32 571, i32 577, i32 587, i32 593, i32 599, i32 601, i32 607, i32 613, i32 617, i32 619, i32 631, i32 641, i32 643, i32 647, i32 653, i32 659, i32 661, i32 673, i32 677, i32 683, i32 691, i32 701, i32 709, i32 719, i32 727, i32 733, i32 739, i32 743, i32 751, i32 757, i32 761, i32 769, i32 773, i32 787, i32 797, i32 809, i32 811, i32 821, i32 823, i32 827, i32 829, i32 839, i32 853, i32 857, i32 859, i32 863, i32 877, i32 881, i32 883, i32 887, i32 907, i32 911, i32 919, i32 929, i32 937, i32 941, i32 947, i32 953, i32 967, i32 971, i32 977, i32 983, i32 991, i32 997], align 16
@_ZSt3cin = external global %"class.std::basic_istream", align 8
@_ZSt4cout = external global %"class.std::basic_ostream", align 8
@.str = private unnamed_addr constant [2 x i8] c" \00", align 1
@llvm.global_ctors = appending global [1 x { i32, void ()*, i8* }] [{ i32, void ()*, i8* } { i32 65535, void ()* @_GLOBAL__sub_I_592.cpp, i8* null }]

declare void @_ZNSt8ios_base4InitC1Ev(%"class.std::ios_base::Init"* nonnull align 1 dereferenceable(1)) unnamed_addr #0

; Function Attrs: nounwind
declare void @_ZNSt8ios_base4InitD1Ev(%"class.std::ios_base::Init"* nonnull align 1 dereferenceable(1)) unnamed_addr #1

; Function Attrs: nofree nounwind
declare i32 @__cxa_atexit(void (i8*)*, i8*, i8*) local_unnamed_addr #2

; Function Attrs: mustprogress norecurse sspstrong uwtable
define dso_local i32 @main() local_unnamed_addr #3 {
  %1 = alloca i32, align 4
  %2 = bitcast i32* %1 to i8*
  call void @llvm.lifetime.start.p0i8(i64 4, i8* nonnull %2) #7
  %3 = call nonnull align 8 dereferenceable(16) %"class.std::basic_istream"* @_ZNSirsERi(%"class.std::basic_istream"* nonnull align 8 dereferenceable(16) @_ZSt3cin, i32* nonnull align 4 dereferenceable(4) %1)
  br label %4

4:                                                ; preds = %52, %0
  %5 = phi i64 [ 0, %0 ], [ %53, %52 ]
  %6 = getelementptr inbounds [168 x i32], [168 x i32]* @sushu, i64 0, i64 %5
  br label %7

7:                                                ; preds = %4, %49
  %8 = phi i64 [ %5, %4 ], [ %50, %49 ]
  %9 = load i32, i32* %1, align 4, !tbaa !5
  %10 = load i32, i32* %6, align 4, !tbaa !5
  %11 = getelementptr inbounds [168 x i32], [168 x i32]* @sushu, i64 0, i64 %8
  %12 = load i32, i32* %11, align 4, !tbaa !5
  %13 = add nsw i32 %12, %10
  %14 = icmp eq i32 %9, %13
  br i1 %14, label %15, label %49

15:                                               ; preds = %7
  %16 = call nonnull align 8 dereferenceable(8) %"class.std::basic_ostream"* @_ZNSolsEi(%"class.std::basic_ostream"* nonnull align 8 dereferenceable(8) @_ZSt4cout, i32 %10)
  %17 = call nonnull align 8 dereferenceable(8) %"class.std::basic_ostream"* @_ZSt16__ostream_insertIcSt11char_traitsIcEERSt13basic_ostreamIT_T0_ES6_PKS3_l(%"class.std::basic_ostream"* nonnull align 8 dereferenceable(8) %16, i8* nonnull getelementptr inbounds ([2 x i8], [2 x i8]* @.str, i64 0, i64 0), i64 1)
  %18 = load i32, i32* %11, align 4, !tbaa !5
  %19 = call nonnull align 8 dereferenceable(8) %"class.std::basic_ostream"* @_ZNSolsEi(%"class.std::basic_ostream"* nonnull align 8 dereferenceable(8) %16, i32 %18)
  %20 = bitcast %"class.std::basic_ostream"* %19 to i8**
  %21 = load i8*, i8** %20, align 8, !tbaa !9
  %22 = getelementptr i8, i8* %21, i64 -24
  %23 = bitcast i8* %22 to i64*
  %24 = load i64, i64* %23, align 8
  %25 = bitcast %"class.std::basic_ostream"* %19 to i8*
  %26 = add nsw i64 %24, 240
  %27 = getelementptr inbounds i8, i8* %25, i64 %26
  %28 = bitcast i8* %27 to %"class.std::ctype"**
  %29 = load %"class.std::ctype"*, %"class.std::ctype"** %28, align 8, !tbaa !11
  %30 = icmp eq %"class.std::ctype"* %29, null
  br i1 %30, label %31, label %32

31:                                               ; preds = %15
  call void @_ZSt16__throw_bad_castv() #8
  unreachable

32:                                               ; preds = %15
  %33 = getelementptr inbounds %"class.std::ctype", %"class.std::ctype"* %29, i64 0, i32 8
  %34 = load i8, i8* %33, align 8, !tbaa !15
  %35 = icmp eq i8 %34, 0
  br i1 %35, label %39, label %36

36:                                               ; preds = %32
  %37 = getelementptr inbounds %"class.std::ctype", %"class.std::ctype"* %29, i64 0, i32 9, i64 10
  %38 = load i8, i8* %37, align 1, !tbaa !17
  br label %45

39:                                               ; preds = %32
  call void @_ZNKSt5ctypeIcE13_M_widen_initEv(%"class.std::ctype"* nonnull align 8 dereferenceable(570) %29)
  %40 = bitcast %"class.std::ctype"* %29 to i8 (%"class.std::ctype"*, i8)***
  %41 = load i8 (%"class.std::ctype"*, i8)**, i8 (%"class.std::ctype"*, i8)*** %40, align 8, !tbaa !9
  %42 = getelementptr inbounds i8 (%"class.std::ctype"*, i8)*, i8 (%"class.std::ctype"*, i8)** %41, i64 6
  %43 = load i8 (%"class.std::ctype"*, i8)*, i8 (%"class.std::ctype"*, i8)** %42, align 8
  %44 = call signext i8 %43(%"class.std::ctype"* nonnull align 8 dereferenceable(570) %29, i8 signext 10)
  br label %45

45:                                               ; preds = %36, %39
  %46 = phi i8 [ %38, %36 ], [ %44, %39 ]
  %47 = call nonnull align 8 dereferenceable(8) %"class.std::basic_ostream"* @_ZNSo3putEc(%"class.std::basic_ostream"* nonnull align 8 dereferenceable(8) %19, i8 signext %46)
  %48 = call nonnull align 8 dereferenceable(8) %"class.std::basic_ostream"* @_ZNSo5flushEv(%"class.std::basic_ostream"* nonnull align 8 dereferenceable(8) %47)
  br label %49

49:                                               ; preds = %7, %45
  %50 = add nuw nsw i64 %8, 1
  %51 = icmp eq i64 %50, 168
  br i1 %51, label %52, label %7, !llvm.loop !18

52:                                               ; preds = %49
  %53 = add nuw nsw i64 %5, 1
  %54 = icmp eq i64 %53, 168
  br i1 %54, label %55, label %4, !llvm.loop !20

55:                                               ; preds = %52
  call void @llvm.lifetime.end.p0i8(i64 4, i8* nonnull %2) #7
  ret i32 0
}

; Function Attrs: argmemonly mustprogress nofree nosync nounwind willreturn
declare void @llvm.lifetime.start.p0i8(i64 immarg, i8* nocapture) #4

declare nonnull align 8 dereferenceable(16) %"class.std::basic_istream"* @_ZNSirsERi(%"class.std::basic_istream"* nonnull align 8 dereferenceable(16), i32* nonnull align 4 dereferenceable(4)) local_unnamed_addr #0

declare nonnull align 8 dereferenceable(8) %"class.std::basic_ostream"* @_ZNSolsEi(%"class.std::basic_ostream"* nonnull align 8 dereferenceable(8), i32) local_unnamed_addr #0

; Function Attrs: argmemonly mustprogress nofree nosync nounwind willreturn
declare void @llvm.lifetime.end.p0i8(i64 immarg, i8* nocapture) #4

declare nonnull align 8 dereferenceable(8) %"class.std::basic_ostream"* @_ZSt16__ostream_insertIcSt11char_traitsIcEERSt13basic_ostreamIT_T0_ES6_PKS3_l(%"class.std::basic_ostream"* nonnull align 8 dereferenceable(8), i8*, i64) local_unnamed_addr #0

declare nonnull align 8 dereferenceable(8) %"class.std::basic_ostream"* @_ZNSo3putEc(%"class.std::basic_ostream"* nonnull align 8 dereferenceable(8), i8 signext) local_unnamed_addr #0

declare nonnull align 8 dereferenceable(8) %"class.std::basic_ostream"* @_ZNSo5flushEv(%"class.std::basic_ostream"* nonnull align 8 dereferenceable(8)) local_unnamed_addr #0

; Function Attrs: noreturn
declare void @_ZSt16__throw_bad_castv() local_unnamed_addr #5

declare void @_ZNKSt5ctypeIcE13_M_widen_initEv(%"class.std::ctype"* nonnull align 8 dereferenceable(570)) local_unnamed_addr #0

; Function Attrs: sspstrong uwtable
define internal void @_GLOBAL__sub_I_592.cpp() #6 section ".text.startup" {
  tail call void @_ZNSt8ios_base4InitC1Ev(%"class.std::ios_base::Init"* nonnull align 1 dereferenceable(1) @_ZStL8__ioinit)
  %1 = tail call i32 @__cxa_atexit(void (i8*)* bitcast (void (%"class.std::ios_base::Init"*)* @_ZNSt8ios_base4InitD1Ev to void (i8*)*), i8* getelementptr inbounds (%"class.std::ios_base::Init", %"class.std::ios_base::Init"* @_ZStL8__ioinit, i64 0, i32 0), i8* nonnull @__dso_handle) #7
  ret void
}


!llvm.module.flags = !{!0, !1, !2, !3}
!llvm.ident = !{!4}

!0 = !{i32 1, !"wchar_size", i32 4}
!1 = !{i32 7, !"PIC Level", i32 2}
!2 = !{i32 7, !"PIE Level", i32 2}
!3 = !{i32 7, !"uwtable", i32 1}
!4 = !{!"clang version 13.0.0"}
!5 = !{!6, !6, i64 0}
!6 = !{!"int", !7, i64 0}
!7 = !{!"omnipotent char", !8, i64 0}
!8 = !{!"Simple C++ TBAA"}
!9 = !{!10, !10, i64 0}
!10 = !{!"vtable pointer", !8, i64 0}
!11 = !{!12, !13, i64 240}
!12 = !{!"_ZTSSt9basic_iosIcSt11char_traitsIcEE", !13, i64 216, !7, i64 224, !14, i64 225, !13, i64 232, !13, i64 240, !13, i64 248, !13, i64 256}
!13 = !{!"any pointer", !7, i64 0}
!14 = !{!"bool", !7, i64 0}
!15 = !{!16, !7, i64 56}
!16 = !{!"_ZTSSt5ctypeIcE", !13, i64 16, !14, i64 24, !13, i64 32, !13, i64 40, !13, i64 48, !7, i64 56, !7, i64 57, !7, i64 313, !7, i64 569}
!17 = !{!7, !7, i64 0}
!18 = distinct !{!18, !19}
!19 = !{!"llvm.loop.mustprogress"}
!20 = distinct !{!20, !19}
